; Function Attrs: null_pointer_is_valid sspstrong uwtable
define internal void @dissect_pfcp_reporting_flags(ptr noundef %0, ptr noundef %1, ptr noundef %2, ptr readnone captures(none) %3, i16 noundef zeroext %4, i8 zeroext %5, ptr readnone captures(none) %6) #0 {
  tail call void @proto_tree_add_bitmask_list(ptr noundef %2, ptr noundef %0, i32 noundef 0, i32 noundef 1, ptr noundef nonnull @dissect_pfcp_reporting_flags.pfcp_reporting_flags_o5_flags, i32 noundef 0)
  %switch = icmp ult i16 %4, 2
  br i1 %switch, label %10, label %8

8:                                                ; preds = %7
  %9 = tail call ptr @proto_tree_add_expert(ptr noundef %2, ptr noundef %1, ptr noundef nonnull @ei_pfcp_ie_data_not_decoded, ptr noundef %0, i32 noundef 1, i32 noundef -1)
  br label %10

10:                                               ; preds = %7, %8
  ret void
}